target datalayout = "e-m:e-p270:32:32-p271:32:32-p272:64:64-i64:64-i128:128-f80:128-n8:16:32:64-S128"
target triple = "x86_64-pc-linux-gnu"

%struct.AVCodecGuid = type { i32, [16 x i8] }

; Function Attrs: alwaysinline nounwind uwtable
define internal i32 @ff_guidcmp(ptr noundef %0, ptr noundef %1) #4 {
  %3 = alloca ptr, align 8
  %4 = alloca ptr, align 8
  store ptr %0, ptr %3, align 8, !tbaa !19
  store ptr %1, ptr %4, align 8, !tbaa !19
  %5 = load ptr, ptr %3, align 8, !tbaa !19
  %6 = load ptr, ptr %4, align 8, !tbaa !19
  %7 = call i32 @memcmp(ptr noundef %5, ptr noundef %6, i64 noundef 16) #7
  ret i32 %7
}

; Function Attrs: nounwind uwtable
define i32 @ff_codec_guid_get_id(ptr noundef %0, ptr noundef %1) #0 {
  %3 = alloca i32, align 4
  %4 = alloca ptr, align 8
  %5 = alloca ptr, align 8
  %6 = alloca i32, align 4
  %7 = alloca i32, align 4
  store ptr %0, ptr %4, align 8, !tbaa !13
  store ptr %1, ptr %5, align 8, !tbaa !9
  call void @llvm.lifetime.start.p0(i64 4, ptr %6) #6
  store i32 0, ptr %6, align 4, !tbaa !11
  br label %8

8:                                                ; preds = %34, %2
  %9 = load ptr, ptr %4, align 8, !tbaa !13
  %10 = load i32, ptr %6, align 4, !tbaa !11
  %11 = sext i32 %10 to i64
  %12 = getelementptr inbounds %struct.AVCodecGuid, ptr %9, i64 %11
  %13 = getelementptr inbounds nuw %struct.AVCodecGuid, ptr %12, i32 0, i32 0
  %14 = load i32, ptr %13, align 4, !tbaa !15
  %15 = icmp ne i32 %14, 0
  br i1 %15, label %16, label %37

16:                                               ; preds = %8
  %17 = load ptr, ptr %4, align 8, !tbaa !13
  %18 = load i32, ptr %6, align 4, !tbaa !11
  %19 = sext i32 %18 to i64
  %20 = getelementptr inbounds %struct.AVCodecGuid, ptr %17, i64 %19
  %21 = getelementptr inbounds nuw %struct.AVCodecGuid, ptr %20, i32 0, i32 1
  %22 = getelementptr inbounds [16 x i8], ptr %21, i64 0, i64 0
  %23 = load ptr, ptr %5, align 8, !tbaa !9
  %24 = call i32 @ff_guidcmp(ptr noundef %22, ptr noundef %23)
  %25 = icmp ne i32 %24, 0
  br i1 %25, label %33, label %26

26:                                               ; preds = %16
  %27 = load ptr, ptr %4, align 8, !tbaa !13
  %28 = load i32, ptr %6, align 4, !tbaa !11
  %29 = sext i32 %28 to i64
  %30 = getelementptr inbounds %struct.AVCodecGuid, ptr %27, i64 %29
  %31 = getelementptr inbounds nuw %struct.AVCodecGuid, ptr %30, i32 0, i32 0
  %32 = load i32, ptr %31, align 4, !tbaa !15
  store i32 %32, ptr %3, align 4
  store i32 1, ptr %7, align 4
  br label %38

33:                                               ; preds = %16
  br label %34

34:                                               ; preds = %33
  %35 = load i32, ptr %6, align 4, !tbaa !11
  %36 = add nsw i32 %35, 1
  store i32 %36, ptr %6, align 4, !tbaa !11
  br label %8, !llvm.loop !17

37:                                               ; preds = %8
  store i32 0, ptr %3, align 4
  store i32 1, ptr %7, align 4
  br label %38

38:                                               ; preds = %37, %26
  call void @llvm.lifetime.end.p0(i64 4, ptr %6) #6
  %39 = load i32, ptr %3, align 4
  ret i32 %39
}