; Function Attrs: nofree norecurse nounwind memory(argmem: read) uwtable
define i32 @ff_codec_guid_get_id(ptr noundef readonly captures(none) %0, ptr noundef readonly captures(none) %1) local_unnamed_addr #4 {
  %3 = load i32, ptr %0, align 4, !tbaa !4
  %.not10 = icmp eq i32 %3, 0
  br i1 %.not10, label %._crit_edge, label %.lr.ph.preheader

.lr.ph.preheader:                                 ; preds = %2
  %4 = getelementptr inbounds nuw i8, ptr %0, i64 4
  %bcmp15 = tail call i32 @bcmp(ptr noundef nonnull dereferenceable(16) %4, ptr noundef nonnull dereferenceable(16) %1, i64 16)
  %.not916 = icmp eq i32 %bcmp15, 0
  br i1 %.not916, label %._crit_edge, label %.lr.ph18

.lr.ph18:                                         ; preds = %.lr.ph.preheader, %.lr.ph
  %indvars.iv17 = phi i64 [ %indvars.iv.next, %.lr.ph ], [ 0, %.lr.ph.preheader ]
  %indvars.iv.next = add nuw nsw i64 %indvars.iv17, 1
  %5 = getelementptr inbounds nuw %struct.AVCodecGuid, ptr %0, i64 %indvars.iv.next
  %6 = load i32, ptr %5, align 4, !tbaa !4
  %.not = icmp eq i32 %6, 0
  br i1 %.not, label %.._crit_edge.loopexit_crit_edge, label %.lr.ph, !llvm.loop !9

.lr.ph:                                           ; preds = %.lr.ph18
  %7 = getelementptr inbounds nuw %struct.AVCodecGuid, ptr %0, i64 %indvars.iv.next, i32 1
  %bcmp = tail call i32 @bcmp(ptr noundef nonnull dereferenceable(16) %7, ptr noundef nonnull dereferenceable(16) %1, i64 16)
  %.not9 = icmp eq i32 %bcmp, 0
  br i1 %.not9, label %._crit_edge, label %.lr.ph18, !llvm.loop !9

.._crit_edge.loopexit_crit_edge:                  ; preds = %.lr.ph18
  br label %._crit_edge, !llvm.loop !9

._crit_edge:                                      ; preds = %.lr.ph, %.lr.ph.preheader, %.._crit_edge.loopexit_crit_edge, %2
  %.lcssa = phi i32 [ 0, %2 ], [ 0, %.._crit_edge.loopexit_crit_edge ], [ %3, %.lr.ph.preheader ], [ %6, %.lr.ph ]
  ret i32 %.lcssa
}